; ModuleID = '29/1457.c'
source_filename = "29/1457.c"
target datalayout = "e-m:e-p270:32:32-p271:32:32-p272:64:64-i64:64-f80:128-n8:16:32:64-S128"
target triple = "x86_64-pc-linux-gnu"

@.str = private unnamed_addr constant [3 x i8] c"%d\00", align 1
@.str.1 = private unnamed_addr constant [7 x i8] c"%.3lf\0A\00", align 1

; Function Attrs: noinline nounwind uwtable
define dso_local i32 @main() #0 {
  %1 = alloca i32, align 4
  %2 = alloca i32, align 4
  %3 = alloca i32, align 4
  %4 = alloca i8*, align 8
  %5 = alloca i64, align 8
  %6 = alloca i32, align 4
  %7 = alloca i32, align 4
  %8 = alloca double, align 8
  %9 = alloca i32, align 4
  %10 = alloca i32, align 4
  %11 = alloca i32, align 4
  %12 = alloca double, align 8
  store i32 0, i32* %1, align 4
  %13 = call i32 (i8*, ...) @__isoc99_scanf(i8* getelementptr inbounds ([3 x i8], [3 x i8]* @.str, i64 0, i64 0), i32* %2)
  %14 = load i32, i32* %2, align 4
  %15 = zext i32 %14 to i64
  %16 = call i8* @llvm.stacksave()
  store i8* %16, i8** %4, align 8
  %17 = alloca double, i64 %15, align 16
  store i64 %15, i64* %5, align 8
  store i32 0, i32* %3, align 4
  br label %18

18:                                               ; preds = %49, %0
  %19 = load i32, i32* %3, align 4
  %20 = load i32, i32* %2, align 4
  %21 = icmp slt i32 %19, %20
  br i1 %21, label %22, label %52

22:                                               ; preds = %18
  %23 = call i32 (i8*, ...) @__isoc99_scanf(i8* getelementptr inbounds ([3 x i8], [3 x i8]* @.str, i64 0, i64 0), i32* %6)
  store double 0.000000e+00, double* %8, align 8
  store i32 2, i32* %9, align 4
  store i32 1, i32* %10, align 4
  store i32 0, i32* %7, align 4
  br label %24

24:                                               ; preds = %43, %22
  %25 = load i32, i32* %7, align 4
  %26 = load i32, i32* %6, align 4
  %27 = icmp slt i32 %25, %26
  br i1 %27, label %28, label %46

28:                                               ; preds = %24
  %29 = load i32, i32* %9, align 4
  %30 = sitofp i32 %29 to double
  %31 = fmul double 1.000000e+00, %30
  %32 = load i32, i32* %10, align 4
  %33 = sitofp i32 %32 to double
  %34 = fdiv double %31, %33
  store double %34, double* %12, align 8
  %35 = load double, double* %12, align 8
  %36 = load double, double* %8, align 8
  %37 = fadd double %36, %35
  store double %37, double* %8, align 8
  %38 = load i32, i32* %10, align 4
  store i32 %38, i32* %11, align 4
  %39 = load i32, i32* %9, align 4
  store i32 %39, i32* %10, align 4
  %40 = load i32, i32* %11, align 4
  %41 = load i32, i32* %10, align 4
  %42 = add nsw i32 %40, %41
  store i32 %42, i32* %9, align 4
  br label %43

43:                                               ; preds = %28
  %44 = load i32, i32* %7, align 4
  %45 = add nsw i32 %44, 1
  store i32 %45, i32* %7, align 4
  br label %24

46:                                               ; preds = %24
  %47 = load double, double* %8, align 8
  %48 = call i32 (i8*, ...) @printf(i8* getelementptr inbounds ([7 x i8], [7 x i8]* @.str.1, i64 0, i64 0), double %47)
  br label %49

49:                                               ; preds = %46
  %50 = load i32, i32* %3, align 4
  %51 = add nsw i32 %50, 1
  store i32 %51, i32* %3, align 4
  br label %18

52:                                               ; preds = %18
  store i32 0, i32* %1, align 4
  %53 = load i8*, i8** %4, align 8
  call void @llvm.stackrestore(i8* %53)
  %54 = load i32, i32* %1, align 4
  ret i32 %54
}

declare dso_local i32 @__isoc99_scanf(i8*, ...) #1

; Function Attrs: nounwind
declare i8* @llvm.stacksave() #2

declare dso_local i32 @printf(i8*, ...) #1

; Function Attrs: nounwind
declare void @llvm.stackrestore(i8*) #2


!llvm.module.flags = !{!0}
!llvm.ident = !{!1}

!0 = !{i32 1, !"wchar_size", i32 4}
!1 = !{!"clang version 10.0.0-4ubuntu1 "}
